target datalayout = "e-m:e-p270:32:32-p271:32:32-p272:64:64-i64:64-i128:128-f80:128-n8:16:32:64-S128"
target triple = "x86_64-pc-linux-gnu"

%struct.NormalizeContext = type { ptr, [4 x i8], [4 x i8], i32, float, float, [4 x i8], i32, [4 x i32], [4 x i32], i32, i32, i32, i32, [3 x %struct.NormalizeHistory], [3 x %struct.NormalizeHistory], ptr, [3 x [65536 x i16]], ptr, ptr }
%struct.NormalizeHistory = type { ptr, i64 }
%struct.AVChannelLayout = type { i32, i32, %union.anon.1, ptr }
%union.anon.1 = type { i64 }
%struct.AVRational = type { i32, i32 }
%struct.NormalizeLocal = type { i16, float, float }
%struct.AVFrame = type { [8 x ptr], [8 x i32], ptr, i32, i32, i32, i32, i32, %struct.AVRational, i64, i64, %struct.AVRational, i32, ptr, i32, i32, [8 x ptr], ptr, i32, ptr, i32, i32, i32, i32, i32, i32, i32, i64, ptr, i32, ptr, ptr, i64, i64, i64, i64, ptr, %struct.AVChannelLayout, i64 }

; Function Attrs: nounwind uwtable
define internal void @find_min_max(ptr noundef %0, ptr noundef %1, ptr noundef %2, ptr noundef %3) #2 {
  %5 = alloca ptr, align 8
  %6 = alloca ptr, align 8
  %7 = alloca ptr, align 8
  %8 = alloca ptr, align 8
  %9 = alloca i32, align 4
  %10 = alloca i32, align 4
  %11 = alloca i32, align 4
  %12 = alloca ptr, align 8
  %13 = alloca i32, align 4
  %14 = alloca i32, align 4
  store ptr %0, ptr %5, align 8, !tbaa !22
  store ptr %1, ptr %6, align 8, !tbaa !26
  store ptr %2, ptr %7, align 8, !tbaa !82
  store ptr %3, ptr %8, align 8, !tbaa !82
  call void @llvm.lifetime.start.p0(i64 4, ptr %9) #6
  store i32 0, ptr %9, align 4, !tbaa !38
  br label %15

15:                                               ; preds = %44, %4
  %16 = load i32, ptr %9, align 4, !tbaa !38
  %17 = icmp slt i32 %16, 3
  br i1 %17, label %19, label %18

18:                                               ; preds = %15
  call void @llvm.lifetime.end.p0(i64 4, ptr %9) #6
  br label %47

19:                                               ; preds = %15
  %20 = load ptr, ptr %6, align 8, !tbaa !26
  %21 = getelementptr inbounds nuw %struct.AVFrame, ptr %20, i32 0, i32 0
  %22 = getelementptr inbounds [8 x ptr], ptr %21, i64 0, i64 0
  %23 = load ptr, ptr %22, align 8, !tbaa !84
  %24 = load ptr, ptr %5, align 8, !tbaa !22
  %25 = getelementptr inbounds nuw %struct.NormalizeContext, ptr %24, i32 0, i32 6
  %26 = load i32, ptr %9, align 4, !tbaa !38
  %27 = sext i32 %26 to i64
  %28 = getelementptr inbounds [4 x i8], ptr %25, i64 0, i64 %27
  %29 = load i8, ptr %28, align 1, !tbaa !60
  %30 = zext i8 %29 to i64
  %31 = getelementptr inbounds nuw i8, ptr %23, i64 %30
  %32 = load i8, ptr %31, align 1, !tbaa !60
  %33 = zext i8 %32 to i16
  %34 = load ptr, ptr %8, align 8, !tbaa !82
  %35 = load i32, ptr %9, align 4, !tbaa !38
  %36 = sext i32 %35 to i64
  %37 = getelementptr inbounds %struct.NormalizeLocal, ptr %34, i64 %36
  %38 = getelementptr inbounds nuw %struct.NormalizeLocal, ptr %37, i32 0, i32 0
  store i16 %33, ptr %38, align 4, !tbaa !71
  %39 = load ptr, ptr %7, align 8, !tbaa !82
  %40 = load i32, ptr %9, align 4, !tbaa !38
  %41 = sext i32 %40 to i64
  %42 = getelementptr inbounds %struct.NormalizeLocal, ptr %39, i64 %41
  %43 = getelementptr inbounds nuw %struct.NormalizeLocal, ptr %42, i32 0, i32 0
  store i16 %33, ptr %43, align 4, !tbaa !71
  br label %44

44:                                               ; preds = %19
  %45 = load i32, ptr %9, align 4, !tbaa !38
  %46 = add nsw i32 %45, 1
  store i32 %46, ptr %9, align 4, !tbaa !38
  br label %15, !llvm.loop !93

47:                                               ; preds = %18
  call void @llvm.lifetime.start.p0(i64 4, ptr %10) #6
  store i32 0, ptr %10, align 4, !tbaa !38
  br label %48

48:                                               ; preds = %189, %47
  %49 = load i32, ptr %10, align 4, !tbaa !38
  %50 = load ptr, ptr %6, align 8, !tbaa !26
  %51 = getelementptr inbounds nuw %struct.AVFrame, ptr %50, i32 0, i32 4
  %52 = load i32, ptr %51, align 4, !tbaa !85
  %53 = icmp slt i32 %49, %52
  br i1 %53, label %55, label %54

54:                                               ; preds = %48
  store i32 5, ptr %11, align 4
  call void @llvm.lifetime.end.p0(i64 4, ptr %10) #6
  br label %192

55:                                               ; preds = %48
  call void @llvm.lifetime.start.p0(i64 8, ptr %12) #6
  %56 = load ptr, ptr %6, align 8, !tbaa !26
  %57 = getelementptr inbounds nuw %struct.AVFrame, ptr %56, i32 0, i32 0
  %58 = getelementptr inbounds [8 x ptr], ptr %57, i64 0, i64 0
  %59 = load ptr, ptr %58, align 8, !tbaa !84
  %60 = load i32, ptr %10, align 4, !tbaa !38
  %61 = load ptr, ptr %6, align 8, !tbaa !26
  %62 = getelementptr inbounds nuw %struct.AVFrame, ptr %61, i32 0, i32 1
  %63 = getelementptr inbounds [8 x i32], ptr %62, i64 0, i64 0
  %64 = load i32, ptr %63, align 8, !tbaa !38
  %65 = mul nsw i32 %60, %64
  %66 = sext i32 %65 to i64
  %67 = getelementptr inbounds i8, ptr %59, i64 %66
  store ptr %67, ptr %12, align 8, !tbaa !84
  call void @llvm.lifetime.start.p0(i64 4, ptr %13) #6
  store i32 0, ptr %13, align 4, !tbaa !38
  br label %68

68:                                               ; preds = %185, %55
  %69 = load i32, ptr %13, align 4, !tbaa !38
  %70 = load ptr, ptr %6, align 8, !tbaa !26
  %71 = getelementptr inbounds nuw %struct.AVFrame, ptr %70, i32 0, i32 3
  %72 = load i32, ptr %71, align 8, !tbaa !90
  %73 = icmp slt i32 %69, %72
  br i1 %73, label %75, label %74

74:                                               ; preds = %68
  store i32 8, ptr %11, align 4
  call void @llvm.lifetime.end.p0(i64 4, ptr %13) #6
  br label %188

75:                                               ; preds = %68
  call void @llvm.lifetime.start.p0(i64 4, ptr %14) #6
  store i32 0, ptr %14, align 4, !tbaa !38
  br label %76

76:                                               ; preds = %175, %75
  %77 = load i32, ptr %14, align 4, !tbaa !38
  %78 = icmp slt i32 %77, 3
  br i1 %78, label %80, label %79

79:                                               ; preds = %76
  store i32 11, ptr %11, align 4
  call void @llvm.lifetime.end.p0(i64 4, ptr %14) #6
  br label %178

80:                                               ; preds = %76
  %81 = load ptr, ptr %7, align 8, !tbaa !82
  %82 = load i32, ptr %14, align 4, !tbaa !38
  %83 = sext i32 %82 to i64
  %84 = getelementptr inbounds %struct.NormalizeLocal, ptr %81, i64 %83
  %85 = getelementptr inbounds nuw %struct.NormalizeLocal, ptr %84, i32 0, i32 0
  %86 = load i16, ptr %85, align 4, !tbaa !71
  %87 = zext i16 %86 to i32
  %88 = load ptr, ptr %12, align 8, !tbaa !84
  %89 = load ptr, ptr %5, align 8, !tbaa !22
  %90 = getelementptr inbounds nuw %struct.NormalizeContext, ptr %89, i32 0, i32 6
  %91 = load i32, ptr %14, align 4, !tbaa !38
  %92 = sext i32 %91 to i64
  %93 = getelementptr inbounds [4 x i8], ptr %90, i64 0, i64 %92
  %94 = load i8, ptr %93, align 1, !tbaa !60
  %95 = zext i8 %94 to i64
  %96 = getelementptr inbounds nuw i8, ptr %88, i64 %95
  %97 = load i8, ptr %96, align 1, !tbaa !60
  %98 = zext i8 %97 to i32
  %99 = icmp sgt i32 %87, %98
  br i1 %99, label %100, label %112

100:                                              ; preds = %80
  %101 = load ptr, ptr %12, align 8, !tbaa !84
  %102 = load ptr, ptr %5, align 8, !tbaa !22
  %103 = getelementptr inbounds nuw %struct.NormalizeContext, ptr %102, i32 0, i32 6
  %104 = load i32, ptr %14, align 4, !tbaa !38
  %105 = sext i32 %104 to i64
  %106 = getelementptr inbounds [4 x i8], ptr %103, i64 0, i64 %105
  %107 = load i8, ptr %106, align 1, !tbaa !60
  %108 = zext i8 %107 to i64
  %109 = getelementptr inbounds nuw i8, ptr %101, i64 %108
  %110 = load i8, ptr %109, align 1, !tbaa !60
  %111 = zext i8 %110 to i32
  br label %120

112:                                              ; preds = %80
  %113 = load ptr, ptr %7, align 8, !tbaa !82
  %114 = load i32, ptr %14, align 4, !tbaa !38
  %115 = sext i32 %114 to i64
  %116 = getelementptr inbounds %struct.NormalizeLocal, ptr %113, i64 %115
  %117 = getelementptr inbounds nuw %struct.NormalizeLocal, ptr %116, i32 0, i32 0
  %118 = load i16, ptr %117, align 4, !tbaa !71
  %119 = zext i16 %118 to i32
  br label %120

120:                                              ; preds = %112, %100
  %121 = phi i32 [ %111, %100 ], [ %119, %112 ]
  %122 = trunc i32 %121 to i16
  %123 = load ptr, ptr %7, align 8, !tbaa !82
  %124 = load i32, ptr %14, align 4, !tbaa !38
  %125 = sext i32 %124 to i64
  %126 = getelementptr inbounds %struct.NormalizeLocal, ptr %123, i64 %125
  %127 = getelementptr inbounds nuw %struct.NormalizeLocal, ptr %126, i32 0, i32 0
  store i16 %122, ptr %127, align 4, !tbaa !71
  %128 = load ptr, ptr %8, align 8, !tbaa !82
  %129 = load i32, ptr %14, align 4, !tbaa !38
  %130 = sext i32 %129 to i64
  %131 = getelementptr inbounds %struct.NormalizeLocal, ptr %128, i64 %130
  %132 = getelementptr inbounds nuw %struct.NormalizeLocal, ptr %131, i32 0, i32 0
  %133 = load i16, ptr %132, align 4, !tbaa !71
  %134 = zext i16 %133 to i32
  %135 = load ptr, ptr %12, align 8, !tbaa !84
  %136 = load ptr, ptr %5, align 8, !tbaa !22
  %137 = getelementptr inbounds nuw %struct.NormalizeContext, ptr %136, i32 0, i32 6
  %138 = load i32, ptr %14, align 4, !tbaa !38
  %139 = sext i32 %138 to i64
  %140 = getelementptr inbounds [4 x i8], ptr %137, i64 0, i64 %139
  %141 = load i8, ptr %140, align 1, !tbaa !60
  %142 = zext i8 %141 to i64
  %143 = getelementptr inbounds nuw i8, ptr %135, i64 %142
  %144 = load i8, ptr %143, align 1, !tbaa !60
  %145 = zext i8 %144 to i32
  %146 = icmp sgt i32 %134, %145
  br i1 %146, label %147, label %155

147:                                              ; preds = %120
  %148 = load ptr, ptr %8, align 8, !tbaa !82
  %149 = load i32, ptr %14, align 4, !tbaa !38
  %150 = sext i32 %149 to i64
  %151 = getelementptr inbounds %struct.NormalizeLocal, ptr %148, i64 %150
  %152 = getelementptr inbounds nuw %struct.NormalizeLocal, ptr %151, i32 0, i32 0
  %153 = load i16, ptr %152, align 4, !tbaa !71
  %154 = zext i16 %153 to i32
  br label %167

155:                                              ; preds = %120
  %156 = load ptr, ptr %12, align 8, !tbaa !84
  %157 = load ptr, ptr %5, align 8, !tbaa !22
  %158 = getelementptr inbounds nuw %struct.NormalizeContext, ptr %157, i32 0, i32 6
  %159 = load i32, ptr %14, align 4, !tbaa !38
  %160 = sext i32 %159 to i64
  %161 = getelementptr inbounds [4 x i8], ptr %158, i64 0, i64 %160
  %162 = load i8, ptr %161, align 1, !tbaa !60
  %163 = zext i8 %162 to i64
  %164 = getelementptr inbounds nuw i8, ptr %156, i64 %163
  %165 = load i8, ptr %164, align 1, !tbaa !60
  %166 = zext i8 %165 to i32
  br label %167

167:                                              ; preds = %155, %147
  %168 = phi i32 [ %154, %147 ], [ %166, %155 ]
  %169 = trunc i32 %168 to i16
  %170 = load ptr, ptr %8, align 8, !tbaa !82
  %171 = load i32, ptr %14, align 4, !tbaa !38
  %172 = sext i32 %171 to i64
  %173 = getelementptr inbounds %struct.NormalizeLocal, ptr %170, i64 %172
  %174 = getelementptr inbounds nuw %struct.NormalizeLocal, ptr %173, i32 0, i32 0
  store i16 %169, ptr %174, align 4, !tbaa !71
  br label %175

175:                                              ; preds = %167
  %176 = load i32, ptr %14, align 4, !tbaa !38
  %177 = add nsw i32 %176, 1
  store i32 %177, ptr %14, align 4, !tbaa !38
  br label %76, !llvm.loop !94

178:                                              ; preds = %79
  %179 = load ptr, ptr %5, align 8, !tbaa !22
  %180 = getelementptr inbounds nuw %struct.NormalizeContext, ptr %179, i32 0, i32 11
  %181 = load i32, ptr %180, align 8, !tbaa !54
  %182 = load ptr, ptr %12, align 8, !tbaa !84
  %183 = sext i32 %181 to i64
  %184 = getelementptr inbounds i8, ptr %182, i64 %183
  store ptr %184, ptr %12, align 8, !tbaa !84
  br label %185

185:                                              ; preds = %178
  %186 = load i32, ptr %13, align 4, !tbaa !38
  %187 = add nsw i32 %186, 1
  store i32 %187, ptr %13, align 4, !tbaa !38
  br label %68, !llvm.loop !95

188:                                              ; preds = %74
  call void @llvm.lifetime.end.p0(i64 8, ptr %12) #6
  br label %189

189:                                              ; preds = %188
  %190 = load i32, ptr %10, align 4, !tbaa !38
  %191 = add nsw i32 %190, 1
  store i32 %191, ptr %10, align 4, !tbaa !38
  br label %48, !llvm.loop !96

192:                                              ; preds = %54
  ret void
}