; Function Attrs: nofree norecurse nosync nounwind memory(read, argmem: readwrite, inaccessiblemem: none) uwtable
define internal void @find_min_max(ptr noundef readonly captures(none) %0, ptr noundef readonly captures(none) %1, ptr noundef captures(none) %2, ptr noundef captures(none) %3) #5 {
  %5 = load ptr, ptr %1, align 8, !tbaa !76
  %6 = getelementptr inbounds nuw i8, ptr %0, i64 28
  br label %42

.preheader53:                                     ; preds = %42
  %7 = getelementptr inbounds nuw i8, ptr %1, i64 108
  %8 = load i32, ptr %7, align 4, !tbaa !77
  %9 = icmp sgt i32 %8, 0
  br i1 %9, label %.lr.ph, label %._crit_edge59

.lr.ph:                                           ; preds = %.preheader53
  %10 = getelementptr inbounds nuw i8, ptr %1, i64 104
  %11 = load i32, ptr %10, align 8, !tbaa !82
  %12 = icmp sgt i32 %11, 0
  br i1 %12, label %.lr.ph.split.us, label %._crit_edge59

.lr.ph.split.us:                                  ; preds = %.lr.ph
  %13 = getelementptr inbounds nuw i8, ptr %1, i64 64
  %14 = load i32, ptr %13, align 8, !tbaa !57
  %15 = getelementptr inbounds nuw i8, ptr %0, i64 72
  %16 = load i32, ptr %15, align 8, !tbaa !70
  %17 = sext i32 %16 to i64
  %18 = sext i32 %14 to i64
  %wide.trip.count = zext nneg i32 %8 to i64
  br label %.preheader.lr.ph.us

.preheader.lr.ph.us:                              ; preds = %._crit_edge.us, %.lr.ph.split.us
  %indvars.iv67 = phi i64 [ %indvars.iv.next68, %._crit_edge.us ], [ 0, %.lr.ph.split.us ]
  %19 = mul nsw i64 %indvars.iv67, %18
  %20 = getelementptr inbounds i8, ptr %5, i64 %19
  br label %.preheader.us

21:                                               ; preds = %24
  %22 = getelementptr inbounds i8, ptr %.04656.us, i64 %17
  %23 = add nuw nsw i32 %.04557.us, 1
  %exitcond66.not = icmp eq i32 %23, %11
  br i1 %exitcond66.not, label %._crit_edge.us, label %.preheader.us, !llvm.loop !85

24:                                               ; preds = %.preheader.us, %24
  %indvars.iv62 = phi i64 [ 0, %.preheader.us ], [ %indvars.iv.next63, %24 ]
  %25 = getelementptr inbounds nuw %struct.NormalizeLocal, ptr %2, i64 %indvars.iv62
  %26 = load i16, ptr %25, align 4, !tbaa !51
  %27 = getelementptr inbounds nuw [4 x i8], ptr %6, i64 0, i64 %indvars.iv62
  %28 = load i8, ptr %27, align 1, !tbaa !73
  %29 = zext i8 %28 to i64
  %30 = getelementptr inbounds nuw i8, ptr %.04656.us, i64 %29
  %31 = load i8, ptr %30, align 1, !tbaa !73
  %32 = zext i8 %31 to i16
  %33 = tail call i16 @llvm.umin.i16(i16 %26, i16 %32)
  store i16 %33, ptr %25, align 4, !tbaa !51
  %34 = getelementptr inbounds nuw %struct.NormalizeLocal, ptr %3, i64 %indvars.iv62
  %35 = load i16, ptr %34, align 4, !tbaa !51
  %36 = load i8, ptr %27, align 1, !tbaa !73
  %37 = zext i8 %36 to i64
  %38 = getelementptr inbounds nuw i8, ptr %.04656.us, i64 %37
  %39 = load i8, ptr %38, align 1, !tbaa !73
  %40 = zext i8 %39 to i16
  %41 = tail call i16 @llvm.umax.i16(i16 %35, i16 %40)
  store i16 %41, ptr %34, align 4, !tbaa !51
  %indvars.iv.next63 = add nuw nsw i64 %indvars.iv62, 1
  %exitcond65.not = icmp eq i64 %indvars.iv.next63, 3
  br i1 %exitcond65.not, label %21, label %24, !llvm.loop !86

.preheader.us:                                    ; preds = %.preheader.lr.ph.us, %21
  %.04557.us = phi i32 [ 0, %.preheader.lr.ph.us ], [ %23, %21 ]
  %.04656.us = phi ptr [ %20, %.preheader.lr.ph.us ], [ %22, %21 ]
  br label %24

._crit_edge.us:                                   ; preds = %21
  %indvars.iv.next68 = add nuw nsw i64 %indvars.iv67, 1
  %exitcond70.not = icmp eq i64 %indvars.iv.next68, %wide.trip.count
  br i1 %exitcond70.not, label %._crit_edge59, label %.preheader.lr.ph.us, !llvm.loop !87

42:                                               ; preds = %4, %42
  %indvars.iv = phi i64 [ 0, %4 ], [ %indvars.iv.next, %42 ]
  %43 = getelementptr inbounds nuw [4 x i8], ptr %6, i64 0, i64 %indvars.iv
  %44 = load i8, ptr %43, align 1, !tbaa !73
  %45 = zext i8 %44 to i64
  %46 = getelementptr inbounds nuw i8, ptr %5, i64 %45
  %47 = load i8, ptr %46, align 1, !tbaa !73
  %48 = zext i8 %47 to i16
  %49 = getelementptr inbounds nuw %struct.NormalizeLocal, ptr %3, i64 %indvars.iv
  store i16 %48, ptr %49, align 4, !tbaa !51
  %50 = getelementptr inbounds nuw %struct.NormalizeLocal, ptr %2, i64 %indvars.iv
  store i16 %48, ptr %50, align 4, !tbaa !51
  %indvars.iv.next = add nuw nsw i64 %indvars.iv, 1
  %exitcond.not = icmp eq i64 %indvars.iv.next, 3
  br i1 %exitcond.not, label %.preheader53, label %42, !llvm.loop !88

._crit_edge59:                                    ; preds = %._crit_edge.us, %.lr.ph, %.preheader53
  ret void
}